; Function Attrs: mustprogress uwtable
define void @_ZN2cv9videostab17TwoPassStabilizer5resetEv(ptr noundef nonnull align 8 dereferenceable(864) initializes((120, 128)) %0) unnamed_addr #3 align 2 personality ptr @__gxx_personality_v0 {
  %2 = alloca %"class.cv::Mat", align 8
  tail call void @_ZN2cv9videostab14StabilizerBase5resetEv(ptr noundef nonnull align 8 dereferenceable(688) %0)
  %3 = getelementptr inbounds nuw i8, ptr %0, i64 732
  store i32 0, ptr %3, align 4, !tbaa !184
  %4 = getelementptr inbounds nuw i8, ptr %0, i64 736
  store i8 0, ptr %4, align 8, !tbaa !185
  %5 = getelementptr inbounds nuw i8, ptr %0, i64 737
  store i8 0, ptr %5, align 1, !tbaa !186
  %6 = getelementptr inbounds nuw i8, ptr %0, i64 744
  %7 = load ptr, ptr %6, align 8, !tbaa !112
  %8 = getelementptr inbounds nuw i8, ptr %0, i64 752
  %9 = load ptr, ptr %8, align 8, !tbaa !113
  %.not.i.i = icmp eq ptr %9, %7
  br i1 %.not.i.i, label %_ZNSt6vectorIN2cv3MatESaIS1_EE5clearEv.exit, label %.lr.ph.i.i.i.i.i

.lr.ph.i.i.i.i.i:                                 ; preds = %1, %.lr.ph.i.i.i.i.i
  %.05.i.i.i.i.i = phi ptr [ %10, %.lr.ph.i.i.i.i.i ], [ %7, %1 ]
  tail call void @_ZN2cv3MatD1Ev(ptr noundef nonnull align 8 dereferenceable(96) %.05.i.i.i.i.i) #23
  %10 = getelementptr inbounds nuw i8, ptr %.05.i.i.i.i.i, i64 96
  %.not.i.i.i.i.i = icmp eq ptr %10, %9
  br i1 %.not.i.i.i.i.i, label %_ZSt8_DestroyIPN2cv3MatES1_EvT_S3_RSaIT0_E.exit.i.i, label %.lr.ph.i.i.i.i.i, !llvm.loop !114

_ZSt8_DestroyIPN2cv3MatES1_EvT_S3_RSaIT0_E.exit.i.i: ; preds = %.lr.ph.i.i.i.i.i
  store ptr %7, ptr %8, align 8, !tbaa !113
  br label %_ZNSt6vectorIN2cv3MatESaIS1_EE5clearEv.exit

_ZNSt6vectorIN2cv3MatESaIS1_EE5clearEv.exit:      ; preds = %1, %_ZSt8_DestroyIPN2cv3MatES1_EvT_S3_RSaIT0_E.exit.i.i
  call void @llvm.lifetime.start.p0(i64 96, ptr nonnull %2) #23
  call void @_ZN2cv3MatC1Ev(ptr noundef nonnull align 8 dereferenceable(96) %2) #23
  %11 = getelementptr inbounds nuw i8, ptr %0, i64 768
  %12 = invoke noundef nonnull align 8 dereferenceable(96) ptr @_ZN2cv3MataSEOS0_(ptr noundef nonnull align 8 dereferenceable(96) %11, ptr noundef nonnull align 8 dereferenceable(96) %2)
          to label %13 unwind label %14

13:                                               ; preds = %_ZNSt6vectorIN2cv3MatESaIS1_EE5clearEv.exit
  call void @_ZN2cv3MatD1Ev(ptr noundef nonnull align 8 dereferenceable(96) %2) #23
  call void @llvm.lifetime.end.p0(i64 96, ptr nonnull %2) #23
  ret void

14:                                               ; preds = %_ZNSt6vectorIN2cv3MatESaIS1_EE5clearEv.exit
  %15 = landingpad { ptr, i32 }
          cleanup
  call void @_ZN2cv3MatD1Ev(ptr noundef nonnull align 8 dereferenceable(96) %2) #23
  call void @llvm.lifetime.end.p0(i64 96, ptr nonnull %2) #23
  resume { ptr, i32 } %15
}